(dp1
S'OriginalConfig'
p2
ccopy_reg
_reconstructor
p3
(cWMCore.Configuration
Configuration
p4
c__builtin__
object
p5
NtRp6
(dp7
S'Site'
p8
g3
(cWMCore.Configuration
ConfigSection
p9
g5
NtRp10
(dp11
S'_internal_skipChecks'
p12
I00
sS'_internal_documentation'
p13
S''
sS'_internal_settings'
p14
c__builtin__
set
p15
((lp16
S'whitelist'
p17
aS'storageSite'
p18
atRp19
sS'_internal_name'
p20
g8
sS'_internal_docstrings'
p21
(dp22
sS'_internal_children'
p23
g15
((ltRp24
sg18
S'T3_US_FNALLPC'
p25
sS'_internal_parent_ref'
p26
Nsg17
(lp27
S'T2_*'
p28
aS'T3_*'
p29
asbsS'_internal_sections'
p30
(lp31
S'General'
p32
aS'JobType'
p33
aS'Data'
p34
ag8
aS'User'
p35
aS'Debug'
p36
asg32
g3
(g9
g5
NtRp37
(dp38
S'transferLogs'
p39
I01
sg12
I00
sg13
S''
sg14
g15
((lp40
g39
aS'transferOutputs'
p41
aS'workArea'
p42
aS'requestName'
p43
atRp44
sg20
g32
sg21
(dp45
sg41
I01
sg23
g15
((ltRp46
sg43
S'SIM_210511111111'
p47
sg26
Nsg42
S'crab_projects'
p48
sbsS'_internal_webapps'
p49
(lp50
sg35
g3
(g9
g5
NtRp51
(dp52
g12
I00
sg13
S''
sg14
g15
((ltRp53
sg20
g35
sg21
(dp54
sg23
g15
((ltRp55
sg26
NsbsS'_internal_components'
p56
(lp57
sg36
g3
(g9
g5
NtRp58
(dp59
g12
I00
sg13
S''
sg14
g15
((ltRp60
sg20
g36
sg21
(dp61
sg23
g15
((ltRp62
sg26
Nsbsg34
g3
(g9
g5
NtRp63
(dp64
S'inputDataset'
p65
S'/GEN_Hpp_NEW_test/ardas-RunIISummer20UL18_GEN-42b65214d01566d851ba74f16b93e2b1/USER'
p66
sS'outputDatasetTag'
p67
S'RunIISummer20UL18_SIM'
p68
sg12
I00
sS'splitting'
p69
S'FileBased'
p70
sS'unitsPerJob'
p71
I1
sg13
S''
sg14
g15
((lp72
g65
ag67
aS'publication'
p73
ag71
aS'ignoreLocality'
p74
ag69
aS'inputDBS'
p75
aS'outLFNDirBase'
p76
atRp77
sg74
I01
sg20
g34
sg75
S'phys03'
p78
sg21
(dp79
sg23
g15
((ltRp80
sg76
S'/store/user/ardas/'
p81
sg26
Nsg73
I01
sbsg33
g3
(g9
g5
NtRp82
(dp83
S'numCores'
p84
I4
sg12
I00
sg13
S''
sg14
g15
((lp85
S'psetName'
p86
aS'pluginName'
p87
ag84
aS'maxMemoryMB'
p88
atRp89
sg20
g33
sg21
(dp90
sg87
S'Analysis'
p91
sg23
g15
((ltRp92
sg86
S'run_crab.py'
p93
sg26
Nsg88
I4000
sbsbsS'voGroup'
p94
S''
sS'Server'
p95
S'cmsweb.cern.ch'
p96
sS'instance'
p97
S'prod'
p98
sS'RequestName'
p99
V210511_161134:ardas_crab_SIM_210511111111
p100
sS'voRole'
p101
S'NULL'
p102
sS'Port'
p103
S''
s.